; Function Attrs: alwaysinline norecurse nounwind uwtable
define internal void @_ZN8LightGBM9Threading3ForImEEiT_S2_S2_RKSt8functionIFviS2_S2_EE.omp_outlined(ptr noalias noundef readonly captures(none) %0, ptr noalias readnone captures(none) %1, ptr noundef nonnull readonly align 4 captures(none) dereferenceable(4) %2, ptr noundef nonnull readonly align 8 captures(none) dereferenceable(8) %3, ptr noundef nonnull readonly align 8 captures(none) dereferenceable(8) %4, ptr noundef nonnull readonly align 8 captures(none) dereferenceable(8) %5, ptr noundef nonnull align 8 dereferenceable(32) %6, ptr noundef nonnull align 8 dereferenceable(48) %7) #20 personality ptr @__gxx_personality_v0 {
  %9 = alloca i32, align 4
  %10 = alloca i64, align 8
  %11 = alloca i64, align 8
  %12 = alloca i32, align 4
  %13 = alloca i32, align 4
  %14 = alloca i32, align 4
  %15 = alloca i32, align 4
  %16 = load i32, ptr %2, align 4, !tbaa !172
  %17 = add nsw i32 %16, -1
  %18 = icmp sgt i32 %16, 0
  br i1 %18, label %19, label %62

19:                                               ; preds = %8
  call void @llvm.lifetime.start.p0(i64 4, ptr nonnull %12) #21
  store i32 0, ptr %12, align 4, !tbaa !172
  call void @llvm.lifetime.start.p0(i64 4, ptr nonnull %13) #21
  store i32 %17, ptr %13, align 4, !tbaa !172
  call void @llvm.lifetime.start.p0(i64 4, ptr nonnull %14) #21
  store i32 1, ptr %14, align 4, !tbaa !172
  call void @llvm.lifetime.start.p0(i64 4, ptr nonnull %15) #21
  store i32 0, ptr %15, align 4, !tbaa !172
  %20 = load i32, ptr %0, align 4, !tbaa !172
  call void @__kmpc_for_static_init_4(ptr nonnull @1, i32 %20, i32 33, ptr nonnull %15, ptr nonnull %12, ptr nonnull %13, ptr nonnull %14, i32 1, i32 1)
  %21 = load i32, ptr %13, align 4, !tbaa !172
  %22 = call i32 @llvm.smin.i32(i32 %21, i32 %17)
  store i32 %22, ptr %13, align 4, !tbaa !172
  %23 = load i32, ptr %12, align 4, !tbaa !172
  %.not38 = icmp sgt i32 %23, %22
  br i1 %.not38, label %._crit_edge39, label %.preheader.lr.ph

.preheader.lr.ph:                                 ; preds = %19
  %24 = getelementptr inbounds nuw i8, ptr %6, i64 16
  %25 = getelementptr inbounds nuw i8, ptr %6, i64 24
  br label %.preheader

.preheader:                                       ; preds = %.preheader.lr.ph, %._crit_edge
  %26 = phi i32 [ %22, %.preheader.lr.ph ], [ %61, %._crit_edge ]
  %27 = phi i32 [ %23, %.preheader.lr.ph ], [ %59, %._crit_edge ]
  %.not3136 = icmp sgt i32 %27, %26
  br i1 %.not3136, label %._crit_edge, label %.lr.ph.preheader

.lr.ph.preheader:                                 ; preds = %.preheader
  %28 = sext i32 %27 to i64
  br label %.lr.ph

.lr.ph:                                           ; preds = %.lr.ph.preheader, %54
  %indvars.iv = phi i64 [ %28, %.lr.ph.preheader ], [ %indvars.iv.next, %54 ]
  %29 = load i64, ptr %3, align 8, !tbaa !148
  %30 = load i64, ptr %4, align 8, !tbaa !148
  %31 = mul i64 %30, %indvars.iv
  %32 = add i64 %31, %29
  %33 = add i64 %32, %30
  %34 = load i64, ptr %5, align 8, !tbaa !148
  %.sroa.speculated = call i64 @llvm.umin.i64(i64 %33, i64 %34)
  %35 = icmp ult i64 %32, %.sroa.speculated
  br i1 %35, label %36, label %54

36:                                               ; preds = %.lr.ph
  call void @llvm.lifetime.start.p0(i64 4, ptr nonnull %9)
  call void @llvm.lifetime.start.p0(i64 8, ptr nonnull %10)
  call void @llvm.lifetime.start.p0(i64 8, ptr nonnull %11)
  %37 = trunc nsw i64 %indvars.iv to i32
  store i32 %37, ptr %9, align 4, !tbaa !172
  store i64 %32, ptr %10, align 8, !tbaa !148
  store i64 %.sroa.speculated, ptr %11, align 8, !tbaa !148
  %38 = load ptr, ptr %24, align 8, !tbaa !302
  %.not.i.i = icmp eq ptr %38, null
  br i1 %.not.i.i, label %39, label %40

39:                                               ; preds = %36
  invoke void @_ZSt25__throw_bad_function_callv() #34
          to label %.noexc unwind label %42

.noexc:                                           ; preds = %39
  unreachable

40:                                               ; preds = %36
  %41 = load ptr, ptr %25, align 8, !tbaa !299
  invoke void %41(ptr noundef nonnull align 8 dereferenceable(32) %6, ptr noundef nonnull align 4 dereferenceable(4) %9, ptr noundef nonnull align 8 dereferenceable(8) %10, ptr noundef nonnull align 8 dereferenceable(8) %11)
          to label %_ZNKSt8functionIFvimmEEclEimm.exit unwind label %42

_ZNKSt8functionIFvimmEEclEimm.exit:               ; preds = %40
  call void @llvm.lifetime.end.p0(i64 4, ptr nonnull %9)
  call void @llvm.lifetime.end.p0(i64 8, ptr nonnull %10)
  call void @llvm.lifetime.end.p0(i64 8, ptr nonnull %11)
  br label %54

42:                                               ; preds = %40, %39
  %43 = landingpad { ptr, i32 }
          catch ptr @_ZTISt9exception
          catch ptr null
  %44 = extractvalue { ptr, i32 } %43, 0
  %45 = extractvalue { ptr, i32 } %43, 1
  %46 = call i32 @llvm.eh.typeid.for.p0(ptr nonnull @_ZTISt9exception) #21
  %47 = icmp eq i32 %45, %46
  %48 = call ptr @__cxa_begin_catch(ptr %44) #21
  br i1 %47, label %49, label %.invoke43

49:                                               ; preds = %42
  %50 = load ptr, ptr %48, align 8, !tbaa !4
  %51 = getelementptr inbounds nuw i8, ptr %50, i64 16
  %52 = load ptr, ptr %51, align 8
  %53 = call noundef ptr %52(ptr noundef nonnull align 8 dereferenceable(8) %48) #21
  invoke void (ptr, ...) @_ZN8LightGBM3Log7WarningEPKcz(ptr noundef %53)
          to label %.invoke43 unwind label %63

54:                                               ; preds = %.invoke, %_ZNKSt8functionIFvimmEEclEimm.exit, %.lr.ph
  %indvars.iv.next = add nsw i64 %indvars.iv, 1
  %55 = load i32, ptr %13, align 4, !tbaa !172
  %56 = sext i32 %55 to i64
  %.not31.not = icmp slt i64 %indvars.iv, %56
  br i1 %.not31.not, label %.lr.ph, label %._crit_edge.loopexit

.invoke43:                                        ; preds = %42, %49
  invoke void @_ZN21ThreadExceptionHelper16CaptureExceptionEv(ptr noundef nonnull align 8 dereferenceable(48) %7)
          to label %.invoke unwind label %63

.invoke:                                          ; preds = %.invoke43
  invoke void @__cxa_end_catch()
          to label %54 unwind label %63

._crit_edge.loopexit:                             ; preds = %54
  %.pre = load i32, ptr %12, align 4, !tbaa !172
  br label %._crit_edge

._crit_edge:                                      ; preds = %._crit_edge.loopexit, %.preheader
  %57 = phi i32 [ %27, %.preheader ], [ %.pre, %._crit_edge.loopexit ]
  %.lcssa = phi i32 [ %26, %.preheader ], [ %55, %._crit_edge.loopexit ]
  %58 = load i32, ptr %14, align 4, !tbaa !172
  %59 = add nsw i32 %58, %57
  store i32 %59, ptr %12, align 4, !tbaa !172
  %60 = add nsw i32 %58, %.lcssa
  %61 = call i32 @llvm.smin.i32(i32 %60, i32 %17)
  store i32 %61, ptr %13, align 4, !tbaa !172
  %.not = icmp sgt i32 %59, %61
  br i1 %.not, label %._crit_edge39, label %.preheader

._crit_edge39:                                    ; preds = %._crit_edge, %19
  call void @__kmpc_for_static_fini(ptr nonnull @1, i32 %20)
  call void @llvm.lifetime.end.p0(i64 4, ptr nonnull %15) #21
  call void @llvm.lifetime.end.p0(i64 4, ptr nonnull %14) #21
  call void @llvm.lifetime.end.p0(i64 4, ptr nonnull %13) #21
  call void @llvm.lifetime.end.p0(i64 4, ptr nonnull %12) #21
  br label %62

62:                                               ; preds = %._crit_edge39, %8
  ret void

63:                                               ; preds = %.invoke43, %.invoke, %49
  %64 = landingpad { ptr, i32 }
          catch ptr null
  %65 = extractvalue { ptr, i32 } %64, 0
  call void @__clang_call_terminate(ptr %65) #36
  unreachable
}